target datalayout = "e-m:e-p270:32:32-p271:32:32-p272:64:64-i64:64-i128:128-f80:128-n8:16:32:64-S128"
target triple = "x86_64-pc-linux-gnu"

%struct.AVFilterContext = type { ptr, ptr, ptr, ptr, ptr, i32, ptr, ptr, i32, ptr, ptr, i32, i32, ptr, ptr, ptr, ptr, i32, ptr, i32, i32 }
%struct.AudioSurroundContext = type { ptr, %struct.AVChannelLayout, %struct.AVChannelLayout, float, float, [9 x float], [9 x float], i32, float, float, float, i32, i32, float, float, float, float, [9 x float], [9 x float], ptr, ptr, i32, i32, i32, i32, float, float, i32, i32, ptr, ptr, ptr, ptr, ptr, ptr, ptr, ptr, ptr, ptr, ptr, ptr, ptr, ptr, ptr, ptr, ptr, ptr, ptr, i32, i32, ptr, ptr, ptr, ptr, ptr, ptr, ptr, ptr, ptr }
%struct.AVChannelLayout = type { i32, i32, %union.anon.1, ptr }
%union.anon.1 = type { i64 }

; Function Attrs: cold nounwind optsize uwtable
define internal void @uninit(ptr noundef %0) #0 {
  %2 = alloca ptr, align 8
  %3 = alloca ptr, align 8
  %4 = alloca i32, align 4
  %5 = alloca i32, align 4
  store ptr %0, ptr %2, align 8, !tbaa !4
  call void @llvm.lifetime.start.p0(i64 8, ptr %3) #12
  %6 = load ptr, ptr %2, align 8, !tbaa !4
  %7 = getelementptr inbounds nuw %struct.AVFilterContext, ptr %6, i32 0, i32 9
  %8 = load ptr, ptr %7, align 8, !tbaa !9
  store ptr %8, ptr %3, align 8, !tbaa !22
  %9 = load ptr, ptr %3, align 8, !tbaa !22
  %10 = getelementptr inbounds nuw %struct.AudioSurroundContext, ptr %9, i32 0, i32 29
  call void @av_frame_free(ptr noundef %10)
  %11 = load ptr, ptr %3, align 8, !tbaa !22
  %12 = getelementptr inbounds nuw %struct.AudioSurroundContext, ptr %11, i32 0, i32 30
  call void @av_frame_free(ptr noundef %12)
  %13 = load ptr, ptr %3, align 8, !tbaa !22
  %14 = getelementptr inbounds nuw %struct.AudioSurroundContext, ptr %13, i32 0, i32 38
  call void @av_frame_free(ptr noundef %14)
  %15 = load ptr, ptr %3, align 8, !tbaa !22
  %16 = getelementptr inbounds nuw %struct.AudioSurroundContext, ptr %15, i32 0, i32 31
  call void @av_frame_free(ptr noundef %16)
  %17 = load ptr, ptr %3, align 8, !tbaa !22
  %18 = getelementptr inbounds nuw %struct.AudioSurroundContext, ptr %17, i32 0, i32 32
  call void @av_frame_free(ptr noundef %18)
  %19 = load ptr, ptr %3, align 8, !tbaa !22
  %20 = getelementptr inbounds nuw %struct.AudioSurroundContext, ptr %19, i32 0, i32 33
  call void @av_frame_free(ptr noundef %20)
  %21 = load ptr, ptr %3, align 8, !tbaa !22
  %22 = getelementptr inbounds nuw %struct.AudioSurroundContext, ptr %21, i32 0, i32 35
  call void @av_frame_free(ptr noundef %22)
  %23 = load ptr, ptr %3, align 8, !tbaa !22
  %24 = getelementptr inbounds nuw %struct.AudioSurroundContext, ptr %23, i32 0, i32 34
  call void @av_frame_free(ptr noundef %24)
  %25 = load ptr, ptr %3, align 8, !tbaa !22
  %26 = getelementptr inbounds nuw %struct.AudioSurroundContext, ptr %25, i32 0, i32 36
  call void @av_frame_free(ptr noundef %26)
  %27 = load ptr, ptr %3, align 8, !tbaa !22
  %28 = getelementptr inbounds nuw %struct.AudioSurroundContext, ptr %27, i32 0, i32 37
  call void @av_frame_free(ptr noundef %28)
  call void @llvm.lifetime.start.p0(i64 4, ptr %4) #12
  store i32 0, ptr %4, align 4, !tbaa !47
  br label %29

29:                                               ; preds = %43, %1
  %30 = load i32, ptr %4, align 4, !tbaa !47
  %31 = load ptr, ptr %3, align 8, !tbaa !22
  %32 = getelementptr inbounds nuw %struct.AudioSurroundContext, ptr %31, i32 0, i32 27
  %33 = load i32, ptr %32, align 8, !tbaa !56
  %34 = icmp slt i32 %30, %33
  br i1 %34, label %36, label %35

35:                                               ; preds = %29
  call void @llvm.lifetime.end.p0(i64 4, ptr %4) #12
  br label %46

36:                                               ; preds = %29
  %37 = load ptr, ptr %3, align 8, !tbaa !22
  %38 = getelementptr inbounds nuw %struct.AudioSurroundContext, ptr %37, i32 0, i32 50
  %39 = load ptr, ptr %38, align 8, !tbaa !57
  %40 = load i32, ptr %4, align 4, !tbaa !47
  %41 = sext i32 %40 to i64
  %42 = getelementptr inbounds ptr, ptr %39, i64 %41
  call void @av_tx_uninit(ptr noundef %42)
  br label %43

43:                                               ; preds = %36
  %44 = load i32, ptr %4, align 4, !tbaa !47
  %45 = add nsw i32 %44, 1
  store i32 %45, ptr %4, align 4, !tbaa !47
  br label %29, !llvm.loop !58

46:                                               ; preds = %35
  call void @llvm.lifetime.start.p0(i64 4, ptr %5) #12
  store i32 0, ptr %5, align 4, !tbaa !47
  br label %47

47:                                               ; preds = %61, %46
  %48 = load i32, ptr %5, align 4, !tbaa !47
  %49 = load ptr, ptr %3, align 8, !tbaa !22
  %50 = getelementptr inbounds nuw %struct.AudioSurroundContext, ptr %49, i32 0, i32 28
  %51 = load i32, ptr %50, align 4, !tbaa !59
  %52 = icmp slt i32 %48, %51
  br i1 %52, label %54, label %53

53:                                               ; preds = %47
  call void @llvm.lifetime.end.p0(i64 4, ptr %5) #12
  br label %64

54:                                               ; preds = %47
  %55 = load ptr, ptr %3, align 8, !tbaa !22
  %56 = getelementptr inbounds nuw %struct.AudioSurroundContext, ptr %55, i32 0, i32 51
  %57 = load ptr, ptr %56, align 8, !tbaa !60
  %58 = load i32, ptr %5, align 4, !tbaa !47
  %59 = sext i32 %58 to i64
  %60 = getelementptr inbounds ptr, ptr %57, i64 %59
  call void @av_tx_uninit(ptr noundef %60)
  br label %61

61:                                               ; preds = %54
  %62 = load i32, ptr %5, align 4, !tbaa !47
  %63 = add nsw i32 %62, 1
  store i32 %63, ptr %5, align 4, !tbaa !47
  br label %47, !llvm.loop !61

64:                                               ; preds = %53
  %65 = load ptr, ptr %3, align 8, !tbaa !22
  %66 = getelementptr inbounds nuw %struct.AudioSurroundContext, ptr %65, i32 0, i32 19
  call void @av_freep(ptr noundef %66)
  %67 = load ptr, ptr %3, align 8, !tbaa !22
  %68 = getelementptr inbounds nuw %struct.AudioSurroundContext, ptr %67, i32 0, i32 20
  call void @av_freep(ptr noundef %68)
  %69 = load ptr, ptr %3, align 8, !tbaa !22
  %70 = getelementptr inbounds nuw %struct.AudioSurroundContext, ptr %69, i32 0, i32 50
  call void @av_freep(ptr noundef %70)
  %71 = load ptr, ptr %3, align 8, !tbaa !22
  %72 = getelementptr inbounds nuw %struct.AudioSurroundContext, ptr %71, i32 0, i32 51
  call void @av_freep(ptr noundef %72)
  %73 = load ptr, ptr %3, align 8, !tbaa !22
  %74 = getelementptr inbounds nuw %struct.AudioSurroundContext, ptr %73, i32 0, i32 54
  call void @av_freep(ptr noundef %74)
  %75 = load ptr, ptr %3, align 8, !tbaa !22
  %76 = getelementptr inbounds nuw %struct.AudioSurroundContext, ptr %75, i32 0, i32 39
  call void @av_freep(ptr noundef %76)
  %77 = load ptr, ptr %3, align 8, !tbaa !22
  %78 = getelementptr inbounds nuw %struct.AudioSurroundContext, ptr %77, i32 0, i32 40
  call void @av_freep(ptr noundef %78)
  %79 = load ptr, ptr %3, align 8, !tbaa !22
  %80 = getelementptr inbounds nuw %struct.AudioSurroundContext, ptr %79, i32 0, i32 41
  call void @av_freep(ptr noundef %80)
  %81 = load ptr, ptr %3, align 8, !tbaa !22
  %82 = getelementptr inbounds nuw %struct.AudioSurroundContext, ptr %81, i32 0, i32 42
  call void @av_freep(ptr noundef %82)
  %83 = load ptr, ptr %3, align 8, !tbaa !22
  %84 = getelementptr inbounds nuw %struct.AudioSurroundContext, ptr %83, i32 0, i32 44
  call void @av_freep(ptr noundef %84)
  %85 = load ptr, ptr %3, align 8, !tbaa !22
  %86 = getelementptr inbounds nuw %struct.AudioSurroundContext, ptr %85, i32 0, i32 43
  call void @av_freep(ptr noundef %86)
  %87 = load ptr, ptr %3, align 8, !tbaa !22
  %88 = getelementptr inbounds nuw %struct.AudioSurroundContext, ptr %87, i32 0, i32 47
  call void @av_freep(ptr noundef %88)
  %89 = load ptr, ptr %3, align 8, !tbaa !22
  %90 = getelementptr inbounds nuw %struct.AudioSurroundContext, ptr %89, i32 0, i32 45
  call void @av_freep(ptr noundef %90)
  %91 = load ptr, ptr %3, align 8, !tbaa !22
  %92 = getelementptr inbounds nuw %struct.AudioSurroundContext, ptr %91, i32 0, i32 46
  call void @av_freep(ptr noundef %92)
  call void @llvm.lifetime.end.p0(i64 8, ptr %3) #12
  ret void
}