; Function Attrs: cold nounwind optsize uwtable
define internal void @uninit(ptr noundef readonly captures(none) %0) #0 {
  %2 = getelementptr inbounds nuw i8, ptr %0, i64 72
  %3 = load ptr, ptr %2, align 8, !tbaa !4
  %4 = getelementptr inbounds nuw i8, ptr %3, i64 296
  tail call void @av_frame_free(ptr noundef nonnull %4) #14
  %5 = getelementptr inbounds nuw i8, ptr %3, i64 304
  tail call void @av_frame_free(ptr noundef nonnull %5) #14
  %6 = getelementptr inbounds nuw i8, ptr %3, i64 368
  tail call void @av_frame_free(ptr noundef nonnull %6) #14
  %7 = getelementptr inbounds nuw i8, ptr %3, i64 312
  tail call void @av_frame_free(ptr noundef nonnull %7) #14
  %8 = getelementptr inbounds nuw i8, ptr %3, i64 320
  tail call void @av_frame_free(ptr noundef nonnull %8) #14
  %9 = getelementptr inbounds nuw i8, ptr %3, i64 328
  tail call void @av_frame_free(ptr noundef nonnull %9) #14
  %10 = getelementptr inbounds nuw i8, ptr %3, i64 344
  tail call void @av_frame_free(ptr noundef nonnull %10) #14
  %11 = getelementptr inbounds nuw i8, ptr %3, i64 336
  tail call void @av_frame_free(ptr noundef nonnull %11) #14
  %12 = getelementptr inbounds nuw i8, ptr %3, i64 352
  tail call void @av_frame_free(ptr noundef nonnull %12) #14
  %13 = getelementptr inbounds nuw i8, ptr %3, i64 360
  tail call void @av_frame_free(ptr noundef nonnull %13) #14
  %14 = getelementptr inbounds nuw i8, ptr %3, i64 288
  %15 = load i32, ptr %14, align 8, !tbaa !73
  %16 = icmp sgt i32 %15, 0
  br i1 %16, label %.lr.ph, label %.preheader

.lr.ph:                                           ; preds = %1
  %17 = getelementptr inbounds nuw i8, ptr %3, i64 456
  br label %22

.preheader:                                       ; preds = %22, %1
  %18 = getelementptr inbounds nuw i8, ptr %3, i64 292
  %19 = load i32, ptr %18, align 4, !tbaa !74
  %20 = icmp sgt i32 %19, 0
  br i1 %20, label %.lr.ph37, label %._crit_edge

.lr.ph37:                                         ; preds = %.preheader
  %21 = getelementptr inbounds nuw i8, ptr %3, i64 464
  br label %42

22:                                               ; preds = %.lr.ph, %22
  %indvars.iv = phi i64 [ 0, %.lr.ph ], [ %indvars.iv.next, %22 ]
  %23 = load ptr, ptr %17, align 8, !tbaa !75
  %24 = getelementptr inbounds nuw ptr, ptr %23, i64 %indvars.iv
  tail call void @av_tx_uninit(ptr noundef %24) #14
  %indvars.iv.next = add nuw nsw i64 %indvars.iv, 1
  %25 = load i32, ptr %14, align 8, !tbaa !73
  %26 = sext i32 %25 to i64
  %27 = icmp slt i64 %indvars.iv.next, %26
  br i1 %27, label %22, label %.preheader, !llvm.loop !76

._crit_edge:                                      ; preds = %42, %.preheader
  %28 = getelementptr inbounds nuw i8, ptr %3, i64 248
  tail call void @av_freep(ptr noundef nonnull %28) #14
  %29 = getelementptr inbounds nuw i8, ptr %3, i64 256
  tail call void @av_freep(ptr noundef nonnull %29) #14
  %30 = getelementptr inbounds nuw i8, ptr %3, i64 456
  tail call void @av_freep(ptr noundef nonnull %30) #14
  %31 = getelementptr inbounds nuw i8, ptr %3, i64 464
  tail call void @av_freep(ptr noundef nonnull %31) #14
  %32 = getelementptr inbounds nuw i8, ptr %3, i64 488
  tail call void @av_freep(ptr noundef nonnull %32) #14
  %33 = getelementptr inbounds nuw i8, ptr %3, i64 376
  tail call void @av_freep(ptr noundef nonnull %33) #14
  %34 = getelementptr inbounds nuw i8, ptr %3, i64 384
  tail call void @av_freep(ptr noundef nonnull %34) #14
  %35 = getelementptr inbounds nuw i8, ptr %3, i64 392
  tail call void @av_freep(ptr noundef nonnull %35) #14
  %36 = getelementptr inbounds nuw i8, ptr %3, i64 400
  tail call void @av_freep(ptr noundef nonnull %36) #14
  %37 = getelementptr inbounds nuw i8, ptr %3, i64 416
  tail call void @av_freep(ptr noundef nonnull %37) #14
  %38 = getelementptr inbounds nuw i8, ptr %3, i64 408
  tail call void @av_freep(ptr noundef nonnull %38) #14
  %39 = getelementptr inbounds nuw i8, ptr %3, i64 440
  tail call void @av_freep(ptr noundef nonnull %39) #14
  %40 = getelementptr inbounds nuw i8, ptr %3, i64 424
  tail call void @av_freep(ptr noundef nonnull %40) #14
  %41 = getelementptr inbounds nuw i8, ptr %3, i64 432
  tail call void @av_freep(ptr noundef nonnull %41) #14
  ret void

42:                                               ; preds = %.lr.ph37, %42
  %indvars.iv39 = phi i64 [ 0, %.lr.ph37 ], [ %indvars.iv.next40, %42 ]
  %43 = load ptr, ptr %21, align 8, !tbaa !77
  %44 = getelementptr inbounds nuw ptr, ptr %43, i64 %indvars.iv39
  tail call void @av_tx_uninit(ptr noundef %44) #14
  %indvars.iv.next40 = add nuw nsw i64 %indvars.iv39, 1
  %45 = load i32, ptr %18, align 4, !tbaa !74
  %46 = sext i32 %45 to i64
  %47 = icmp slt i64 %indvars.iv.next40, %46
  br i1 %47, label %42, label %._crit_edge, !llvm.loop !78
}